	.file	"symbolTable.cpp"
	.section	.rodata
	.type	_ZStL19piecewise_construct, @object
	.size	_ZStL19piecewise_construct, 1
_ZStL19piecewise_construct:
	.zero	1
	.local	_ZStL8__ioinit
	.comm	_ZStL8__ioinit,1,1
	.text
	.align 2
	.globl	_ZN7StudentC2Ev
	.type	_ZN7StudentC2Ev, @function
_ZN7StudentC2Ev:
.LFB1197:
	.cfi_startproc
	pushq	%rbp
	.cfi_def_cfa_offset 16
	.cfi_offset 6, -16
	movq	%rsp, %rbp
	.cfi_def_cfa_register 6
	movq	%rdi, -8(%rbp)
	popq	%rbp
	.cfi_def_cfa 7, 8
	ret
	.cfi_endproc
.LFE1197:
	.size	_ZN7StudentC2Ev, .-_ZN7StudentC2Ev
	.globl	_ZN7StudentC1Ev
	.set	_ZN7StudentC1Ev,_ZN7StudentC2Ev
	.align 2
	.globl	_ZN7StudentC2Eid
	.type	_ZN7StudentC2Eid, @function
_ZN7StudentC2Eid:
.LFB1200:
	.cfi_startproc
	pushq	%rbp
	.cfi_def_cfa_offset 16
	.cfi_offset 6, -16
	movq	%rsp, %rbp
	.cfi_def_cfa_register 6
	movq	%rdi, -8(%rbp)
	movl	%esi, -12(%rbp)
	movsd	%xmm0, -24(%rbp)
	movq	-8(%rbp), %rax
	movl	-12(%rbp), %edx
	movl	%edx, (%rax)
	movq	-8(%rbp), %rdx
	movq	-24(%rbp), %rax
	movq	%rax, 8(%rdx)
	popq	%rbp
	.cfi_def_cfa 7, 8
	ret
	.cfi_endproc
.LFE1200:
	.size	_ZN7StudentC2Eid, .-_ZN7StudentC2Eid
	.globl	_ZN7StudentC1Eid
	.set	_ZN7StudentC1Eid,_ZN7StudentC2Eid
	.align 2
	.globl	_ZNK7Student4fun8Eid
	.type	_ZNK7Student4fun8Eid, @function
_ZNK7Student4fun8Eid:
.LFB1202:
	.cfi_startproc
	pushq	%rbp
	.cfi_def_cfa_offset 16
	.cfi_offset 6, -16
	movq	%rsp, %rbp
	.cfi_def_cfa_register 6
	movq	%rdi, -8(%rbp)
	movl	%esi, -12(%rbp)
	movsd	%xmm0, -24(%rbp)
	movl	-12(%rbp), %eax
	popq	%rbp
	.cfi_def_cfa 7, 8
	ret
	.cfi_endproc
.LFE1202:
	.size	_ZNK7Student4fun8Eid, .-_ZNK7Student4fun8Eid
	.align 2
	.globl	_ZN7Student4fun1Eid
	.type	_ZN7Student4fun1Eid, @function
_ZN7Student4fun1Eid:
.LFB1203:
	.cfi_startproc
	pushq	%rbp
	.cfi_def_cfa_offset 16
	.cfi_offset 6, -16
	movq	%rsp, %rbp
	.cfi_def_cfa_register 6
	movq	%rdi, -8(%rbp)
	movl	%esi, -12(%rbp)
	movsd	%xmm0, -24(%rbp)
	movl	-12(%rbp), %eax
	popq	%rbp
	.cfi_def_cfa 7, 8
	ret
	.cfi_endproc
.LFE1203:
	.size	_ZN7Student4fun1Eid, .-_ZN7Student4fun1Eid
	.align 2
	.globl	_ZNK7Student4fun7Eid
	.type	_ZNK7Student4fun7Eid, @function
_ZNK7Student4fun7Eid:
.LFB1204:
	.cfi_startproc
	pushq	%rbp
	.cfi_def_cfa_offset 16
	.cfi_offset 6, -16
	movq	%rsp, %rbp
	.cfi_def_cfa_register 6
	movq	%rdi, -8(%rbp)
	movl	%esi, -12(%rbp)
	movsd	%xmm0, -24(%rbp)
	movl	-12(%rbp), %eax
	popq	%rbp
	.cfi_def_cfa 7, 8
	ret
	.cfi_endproc
.LFE1204:
	.size	_ZNK7Student4fun7Eid, .-_ZNK7Student4fun7Eid
	.align 2
	.globl	_ZN7Student4fun2Efb
	.type	_ZN7Student4fun2Efb, @function
_ZN7Student4fun2Efb:
.LFB1205:
	.cfi_startproc
	pushq	%rbp
	.cfi_def_cfa_offset 16
	.cfi_offset 6, -16
	movq	%rsp, %rbp
	.cfi_def_cfa_register 6
	movq	%rdi, -8(%rbp)
	movss	%xmm0, -12(%rbp)
	movl	%esi, %eax
	movb	%al, -16(%rbp)
	movl	$1, %eax
	popq	%rbp
	.cfi_def_cfa 7, 8
	ret
	.cfi_endproc
.LFE1205:
	.size	_ZN7Student4fun2Efb, .-_ZN7Student4fun2Efb
	.align 2
	.globl	_ZNK7Student4fun6Eid
	.type	_ZNK7Student4fun6Eid, @function
_ZNK7Student4fun6Eid:
.LFB1206:
	.cfi_startproc
	pushq	%rbp
	.cfi_def_cfa_offset 16
	.cfi_offset 6, -16
	movq	%rsp, %rbp
	.cfi_def_cfa_register 6
	movq	%rdi, -8(%rbp)
	movl	%esi, -12(%rbp)
	movsd	%xmm0, -24(%rbp)
	movl	-12(%rbp), %eax
	popq	%rbp
	.cfi_def_cfa 7, 8
	ret
	.cfi_endproc
.LFE1206:
	.size	_ZNK7Student4fun6Eid, .-_ZNK7Student4fun6Eid
	.globl	_Z4fun3id
	.type	_Z4fun3id, @function
_Z4fun3id:
.LFB1207:
	.cfi_startproc
	pushq	%rbp
	.cfi_def_cfa_offset 16
	.cfi_offset 6, -16
	movq	%rsp, %rbp
	.cfi_def_cfa_register 6
	movl	%edi, -4(%rbp)
	movsd	%xmm0, -16(%rbp)
	movq	-16(%rbp), %rax
	movq	%rax, -24(%rbp)
	movsd	-24(%rbp), %xmm0
	popq	%rbp
	.cfi_def_cfa 7, 8
	ret
	.cfi_endproc
.LFE1207:
	.size	_Z4fun3id, .-_Z4fun3id
	.globl	_Z4fun4id
	.type	_Z4fun4id, @function
_Z4fun4id:
.LFB1208:
	.cfi_startproc
	pushq	%rbp
	.cfi_def_cfa_offset 16
	.cfi_offset 6, -16
	movq	%rsp, %rbp
	.cfi_def_cfa_register 6
	movl	%edi, -4(%rbp)
	movsd	%xmm0, -16(%rbp)
	popq	%rbp
	.cfi_def_cfa 7, 8
	ret
	.cfi_endproc
.LFE1208:
	.size	_Z4fun4id, .-_Z4fun4id
	.globl	_Z4fun5v
	.type	_Z4fun5v, @function
_Z4fun5v:
.LFB1209:
	.cfi_startproc
	pushq	%rbp
	.cfi_def_cfa_offset 16
	.cfi_offset 6, -16
	movq	%rsp, %rbp
	.cfi_def_cfa_register 6
	movl	$1, %eax
	popq	%rbp
	.cfi_def_cfa 7, 8
	ret
	.cfi_endproc
.LFE1209:
	.size	_Z4fun5v, .-_Z4fun5v
	.globl	main
	.type	main, @function
main:
.LFB1210:
	.cfi_startproc
	pushq	%rbp
	.cfi_def_cfa_offset 16
	.cfi_offset 6, -16
	movq	%rsp, %rbp
	.cfi_def_cfa_register 6
	movl	$0, %eax
	popq	%rbp
	.cfi_def_cfa 7, 8
	ret
	.cfi_endproc
.LFE1210:
	.size	main, .-main
	.type	_Z41__static_initialization_and_destruction_0ii, @function
_Z41__static_initialization_and_destruction_0ii:
.LFB1357:
	.cfi_startproc
	pushq	%rbp
	.cfi_def_cfa_offset 16
	.cfi_offset 6, -16
	movq	%rsp, %rbp
	.cfi_def_cfa_register 6
	subq	$16, %rsp
	movl	%edi, -4(%rbp)
	movl	%esi, -8(%rbp)
	cmpl	$1, -4(%rbp)
	jne	.L20
	cmpl	$65535, -8(%rbp)
	jne	.L20
	movl	$_ZStL8__ioinit, %edi
	call	_ZNSt8ios_base4InitC1Ev
	movl	$__dso_handle, %edx
	movl	$_ZStL8__ioinit, %esi
	movl	$_ZNSt8ios_base4InitD1Ev, %edi
	call	__cxa_atexit
.L20:
	leave
	.cfi_def_cfa 7, 8
	ret
	.cfi_endproc
.LFE1357:
	.size	_Z41__static_initialization_and_destruction_0ii, .-_Z41__static_initialization_and_destruction_0ii
	.type	_GLOBAL__sub_I__ZN7StudentC2Ev, @function
_GLOBAL__sub_I__ZN7StudentC2Ev:
.LFB1358:
	.cfi_startproc
	pushq	%rbp
	.cfi_def_cfa_offset 16
	.cfi_offset 6, -16
	movq	%rsp, %rbp
	.cfi_def_cfa_register 6
	movl	$65535, %esi
	movl	$1, %edi
	call	_Z41__static_initialization_and_destruction_0ii
	popq	%rbp
	.cfi_def_cfa 7, 8
	ret
	.cfi_endproc
.LFE1358:
	.size	_GLOBAL__sub_I__ZN7StudentC2Ev, .-_GLOBAL__sub_I__ZN7StudentC2Ev
	.section	.init_array,"aw"
	.align 8
	.quad	_GLOBAL__sub_I__ZN7StudentC2Ev
	.hidden	__dso_handle
	.ident	"GCC: (GNU) 4.8.5 20150623 (Red Hat 4.8.5-39)"
	.section	.note.GNU-stack,"",@progbits
